target datalayout = "e-m:e-p270:32:32-p271:32:32-p272:64:64-i64:64-i128:128-f80:128-n8:16:32:64-S128"
target triple = "x86_64-pc-linux-gnu"

%struct.AVChannelLayout = type { i32, i32, %union.anon, ptr }
%union.anon = type { i64 }
%struct.AVCodecContext = type { ptr, i32, i32, ptr, i32, i32, ptr, ptr, ptr, i64, i32, i32, ptr, i32, %struct.AVRational, %struct.AVRational, %struct.AVRational, i32, i32, i32, i32, i32, %struct.AVRational, i32, i32, i32, i32, i32, i32, i32, i32, i32, i32, i32, ptr, ptr, i32, float, float, float, float, float, float, float, float, float, i32, i32, i32, i32, i32, i32, i32, i32, i32, i32, i32, i32, ptr, ptr, ptr, i32, i32, i32, i32, i32, i32, i32, i32, i32, i32, %struct.AVChannelLayout, i32, i32, i32, i32, i32, i32, i32, i32, ptr, i32, i32, i32, float, float, i32, i32, i32, i32, i32, ptr, i64, i64, float, float, i32, i32, ptr, ptr, i32, i32, i32, i32, i32, ptr, ptr, ptr, ptr, i32, i32, [8 x i64], i32, i32, i32, i32, i32, i32, i32, ptr, ptr, i32, i32, i32, i32, i32, i32, i32, i32, i32, i32, ptr, ptr, i32, i32, ptr, ptr, ptr, ptr, i32, i32, i64, i32, i32, i64, ptr, i64, ptr, i32, ptr, i32 }
%struct.AVRational = type { i32, i32 }
%struct.SBCDecContext = type { ptr, [8 x i8], %struct.sbc_frame, %struct.sbc_decoder_state }
%struct.sbc_frame = type { i8, i8, i32, i8, i32, i8, i8, i16, i8, [11 x i8], [2 x [8 x i32]], [16 x [2 x [8 x i32]]], [16 x [2 x [8 x i32]]], ptr, [8 x i8] }
%struct.sbc_decoder_state = type { [2 x [170 x i32]], [2 x [16 x i32]] }

; Function Attrs: cold nounwind optsize uwtable
define internal i32 @sbc_decode_init(ptr noundef %0) #0 {
  %2 = alloca ptr, align 8
  %3 = alloca ptr, align 8
  %4 = alloca i32, align 4
  %5 = alloca i32, align 4
  store ptr %0, ptr %2, align 8, !tbaa !4
  call void @llvm.lifetime.start.p0(i64 8, ptr %3) #8
  %6 = load ptr, ptr %2, align 8, !tbaa !4
  %7 = getelementptr inbounds nuw %struct.AVCodecContext, ptr %6, i32 0, i32 6
  %8 = load ptr, ptr %7, align 8, !tbaa !9
  store ptr %8, ptr %3, align 8, !tbaa !29
  call void @llvm.lifetime.start.p0(i64 4, ptr %4) #8
  call void @llvm.lifetime.start.p0(i64 4, ptr %5) #8
  %9 = load ptr, ptr %2, align 8, !tbaa !4
  %10 = getelementptr inbounds nuw %struct.AVCodecContext, ptr %9, i32 0, i32 70
  store i32 6, ptr %10, align 4, !tbaa !31
  %11 = call ptr @av_crc_get_table(i32 noundef 7)
  %12 = load ptr, ptr %3, align 8, !tbaa !29
  %13 = getelementptr inbounds nuw %struct.SBCDecContext, ptr %12, i32 0, i32 2
  %14 = getelementptr inbounds nuw %struct.sbc_frame, ptr %13, i32 0, i32 13
  store ptr %11, ptr %14, align 16, !tbaa !32
  %15 = load ptr, ptr %3, align 8, !tbaa !29
  %16 = getelementptr inbounds nuw %struct.SBCDecContext, ptr %15, i32 0, i32 3
  %17 = getelementptr inbounds nuw %struct.sbc_decoder_state, ptr %16, i32 0, i32 0
  %18 = getelementptr inbounds [2 x [170 x i32]], ptr %17, i64 0, i64 0
  call void @llvm.memset.p0.i64(ptr align 16 %18, i8 0, i64 1360, i1 false)
  store i32 0, ptr %5, align 4, !tbaa !37
  br label %19

19:                                               ; preds = %44, %1
  %20 = load i32, ptr %5, align 4, !tbaa !37
  %21 = icmp slt i32 %20, 2
  br i1 %21, label %22, label %47

22:                                               ; preds = %19
  store i32 0, ptr %4, align 4, !tbaa !37
  br label %23

23:                                               ; preds = %40, %22
  %24 = load i32, ptr %4, align 4, !tbaa !37
  %25 = sext i32 %24 to i64
  %26 = icmp ult i64 %25, 16
  br i1 %26, label %27, label %43

27:                                               ; preds = %23
  %28 = load i32, ptr %4, align 4, !tbaa !37
  %29 = mul nsw i32 10, %28
  %30 = add nsw i32 %29, 10
  %31 = load ptr, ptr %3, align 8, !tbaa !29
  %32 = getelementptr inbounds nuw %struct.SBCDecContext, ptr %31, i32 0, i32 3
  %33 = getelementptr inbounds nuw %struct.sbc_decoder_state, ptr %32, i32 0, i32 1
  %34 = load i32, ptr %5, align 4, !tbaa !37
  %35 = sext i32 %34 to i64
  %36 = getelementptr inbounds [2 x [16 x i32]], ptr %33, i64 0, i64 %35
  %37 = load i32, ptr %4, align 4, !tbaa !37
  %38 = sext i32 %37 to i64
  %39 = getelementptr inbounds [16 x i32], ptr %36, i64 0, i64 %38
  store i32 %30, ptr %39, align 4, !tbaa !37
  br label %40

40:                                               ; preds = %27
  %41 = load i32, ptr %4, align 4, !tbaa !37
  %42 = add nsw i32 %41, 1
  store i32 %42, ptr %4, align 4, !tbaa !37
  br label %23, !llvm.loop !38

43:                                               ; preds = %23
  br label %44

44:                                               ; preds = %43
  %45 = load i32, ptr %5, align 4, !tbaa !37
  %46 = add nsw i32 %45, 1
  store i32 %46, ptr %5, align 4, !tbaa !37
  br label %19, !llvm.loop !40

47:                                               ; preds = %19
  call void @llvm.lifetime.end.p0(i64 4, ptr %5) #8
  call void @llvm.lifetime.end.p0(i64 4, ptr %4) #8
  call void @llvm.lifetime.end.p0(i64 8, ptr %3) #8
  ret i32 0
}