; Function Attrs: cold nounwind optsize uwtable
define internal noundef i32 @sbc_decode_init(ptr noundef captures(none) initializes((348, 352)) %0) #0 {
  %2 = getelementptr inbounds nuw i8, ptr %0, i64 32
  %3 = load ptr, ptr %2, align 8, !tbaa !4
  %4 = getelementptr inbounds nuw i8, ptr %0, i64 348
  store i32 6, ptr %4, align 4, !tbaa !27
  %5 = tail call ptr @av_crc_get_table(i32 noundef 7) #7
  %6 = getelementptr inbounds nuw i8, ptr %3, i64 2160
  store ptr %5, ptr %6, align 16, !tbaa !28
  %7 = getelementptr inbounds nuw i8, ptr %3, i64 2176
  tail call void @llvm.memset.p0.i64(ptr noundef nonnull align 16 dereferenceable(1360) %7, i8 0, i64 1360, i1 false)
  %8 = getelementptr inbounds nuw i8, ptr %3, i64 3536
  br label %.preheader

.preheader:                                       ; preds = %1, %15
  %9 = phi i1 [ true, %1 ], [ false, %15 ]
  %indvars.iv16 = phi i64 [ 0, %1 ], [ 1, %15 ]
  br label %10

10:                                               ; preds = %.preheader, %10
  %indvars.iv = phi i64 [ 0, %.preheader ], [ %indvars.iv.next, %10 ]
  %11 = getelementptr inbounds nuw [2 x [16 x i32]], ptr %8, i64 0, i64 %indvars.iv16, i64 %indvars.iv
  %12 = trunc i64 %indvars.iv to i32
  %13 = mul i32 %12, 10
  %14 = add i32 %13, 10
  store i32 %14, ptr %11, align 4, !tbaa !33
  %indvars.iv.next = add nuw nsw i64 %indvars.iv, 1
  %exitcond.not = icmp eq i64 %indvars.iv.next, 16
  br i1 %exitcond.not, label %15, label %10, !llvm.loop !34

15:                                               ; preds = %10
  br i1 %9, label %.preheader, label %16, !llvm.loop !36

16:                                               ; preds = %15
  ret i32 0
}